; Function Attrs: mustprogress uwtable
define noundef range(i32 0, 4) i32 @_Z18input_sanity_checkPK28alts_record_protocol_crypterPKhPmPPc(ptr noundef readnone %0, ptr noundef readnone %1, ptr noundef readnone %2, ptr noundef writeonly %3) local_unnamed_addr #0 {
  %5 = icmp eq ptr %0, null
  br i1 %5, label %6, label %9

6:                                                ; preds = %4
  %.not9 = icmp eq ptr %3, null
  br i1 %.not9, label %_ZL20maybe_copy_error_msgPKcPPc.exit, label %7

7:                                                ; preds = %6
  %8 = tail call ptr @gpr_malloc(i64 noundef 34)
  store ptr %8, ptr %3, align 8, !tbaa !3
  tail call void @llvm.memcpy.p0.p0.i64(ptr noundef nonnull align 1 dereferenceable(34) %8, ptr noundef nonnull align 1 dereferenceable(34) @.str, i64 34, i1 false)
  br label %_ZL20maybe_copy_error_msgPKcPPc.exit

9:                                                ; preds = %4
  %10 = icmp eq ptr %1, null
  br i1 %10, label %11, label %14

11:                                               ; preds = %9
  %.not8 = icmp eq ptr %3, null
  br i1 %.not8, label %_ZL20maybe_copy_error_msgPKcPPc.exit, label %12

12:                                               ; preds = %11
  %13 = tail call ptr @gpr_malloc(i64 noundef 17)
  store ptr %13, ptr %3, align 8, !tbaa !3
  tail call void @llvm.memcpy.p0.p0.i64(ptr noundef nonnull align 1 dereferenceable(17) %13, ptr noundef nonnull align 1 dereferenceable(17) @.str.1, i64 17, i1 false)
  br label %_ZL20maybe_copy_error_msgPKcPPc.exit

14:                                               ; preds = %9
  %15 = icmp eq ptr %2, null
  br i1 %15, label %16, label %_ZL20maybe_copy_error_msgPKcPPc.exit

16:                                               ; preds = %14
  %.not = icmp eq ptr %3, null
  br i1 %.not, label %_ZL20maybe_copy_error_msgPKcPPc.exit, label %17

17:                                               ; preds = %16
  %18 = tail call ptr @gpr_malloc(i64 noundef 24)
  store ptr %18, ptr %3, align 8, !tbaa !3
  tail call void @llvm.memcpy.p0.p0.i64(ptr noundef nonnull align 1 dereferenceable(24) %18, ptr noundef nonnull align 1 dereferenceable(24) @.str.2, i64 24, i1 false)
  br label %_ZL20maybe_copy_error_msgPKcPPc.exit

_ZL20maybe_copy_error_msgPKcPPc.exit:             ; preds = %17, %16, %12, %11, %7, %6, %14
  %.0 = phi i32 [ 0, %14 ], [ 3, %6 ], [ 3, %7 ], [ 3, %11 ], [ 3, %12 ], [ 3, %16 ], [ 3, %17 ]
  ret i32 %.0
}